; ModuleID = '10/147.c'
source_filename = "10/147.c"
target datalayout = "e-m:e-p270:32:32-p271:32:32-p272:64:64-i64:64-f80:128-n8:16:32:64-S128"
target triple = "x86_64-pc-linux-gnu"

@.str = private unnamed_addr constant [3 x i8] c"%d\00", align 1
@k = common dso_local global i32 0, align 4
@h = common dso_local global [30 x i32] zeroinitializer, align 16
@l = common dso_local global i32 0, align 4
@f = common dso_local global [30 x i32] zeroinitializer, align 16
@.str.1 = private unnamed_addr constant [4 x i8] c"%d\0A\00", align 1

; Function Attrs: noinline nounwind uwtable
define dso_local i32 @main() #0 {
  %1 = alloca i32, align 4
  %2 = alloca i32, align 4
  %3 = alloca i32, align 4
  %4 = alloca i32, align 4
  %5 = alloca i32, align 4
  store i32 0, i32* %1, align 4
  %6 = call i32 (i8*, ...) @__isoc99_scanf(i8* getelementptr inbounds ([3 x i8], [3 x i8]* @.str, i64 0, i64 0), i32* @k)
  store i32 0, i32* %2, align 4
  br label %7

7:                                                ; preds = %16, %0
  %8 = load i32, i32* %2, align 4
  %9 = load i32, i32* @k, align 4
  %10 = icmp slt i32 %8, %9
  br i1 %10, label %11, label %19

11:                                               ; preds = %7
  %12 = load i32, i32* %2, align 4
  %13 = sext i32 %12 to i64
  %14 = getelementptr inbounds i32, i32* getelementptr inbounds ([30 x i32], [30 x i32]* @h, i64 0, i64 0), i64 %13
  %15 = call i32 (i8*, ...) @__isoc99_scanf(i8* getelementptr inbounds ([3 x i8], [3 x i8]* @.str, i64 0, i64 0), i32* %14)
  br label %16

16:                                               ; preds = %11
  %17 = load i32, i32* %2, align 4
  %18 = add nsw i32 %17, 1
  store i32 %18, i32* %2, align 4
  br label %7

19:                                               ; preds = %7
  store i32 0, i32* @l, align 4
  %20 = load i32, i32* @k, align 4
  %21 = sub nsw i32 %20, 1
  store i32 %21, i32* %2, align 4
  br label %22

22:                                               ; preds = %116, %19
  %23 = load i32, i32* %2, align 4
  %24 = icmp sge i32 %23, 0
  br i1 %24, label %25, label %119

25:                                               ; preds = %22
  %26 = load i32, i32* @l, align 4
  %27 = icmp eq i32 %26, 0
  br i1 %27, label %39, label %28

28:                                               ; preds = %25
  %29 = load i32, i32* @l, align 4
  %30 = sub nsw i32 %29, 1
  %31 = sext i32 %30 to i64
  %32 = getelementptr inbounds [30 x i32], [30 x i32]* @f, i64 0, i64 %31
  %33 = load i32, i32* %32, align 4
  %34 = load i32, i32* %2, align 4
  %35 = sext i32 %34 to i64
  %36 = getelementptr inbounds [30 x i32], [30 x i32]* @h, i64 0, i64 %35
  %37 = load i32, i32* %36, align 4
  %38 = icmp sle i32 %33, %37
  br i1 %38, label %39, label %48

39:                                               ; preds = %28, %25
  %40 = load i32, i32* %2, align 4
  %41 = sext i32 %40 to i64
  %42 = getelementptr inbounds [30 x i32], [30 x i32]* @h, i64 0, i64 %41
  %43 = load i32, i32* %42, align 4
  %44 = load i32, i32* @l, align 4
  %45 = add nsw i32 %44, 1
  store i32 %45, i32* @l, align 4
  %46 = sext i32 %44 to i64
  %47 = getelementptr inbounds [30 x i32], [30 x i32]* @f, i64 0, i64 %46
  store i32 %43, i32* %47, align 4
  br label %115

48:                                               ; preds = %28
  store i32 0, i32* %4, align 4
  %49 = load i32, i32* @l, align 4
  %50 = sub nsw i32 %49, 1
  store i32 %50, i32* %5, align 4
  br label %51

51:                                               ; preds = %86, %48
  %52 = load i32, i32* %4, align 4
  %53 = load i32, i32* %5, align 4
  %54 = icmp slt i32 %52, %53
  br i1 %54, label %55, label %87

55:                                               ; preds = %51
  %56 = load i32, i32* %4, align 4
  %57 = load i32, i32* %5, align 4
  %58 = add nsw i32 %56, %57
  %59 = sdiv i32 %58, 2
  store i32 %59, i32* %3, align 4
  %60 = load i32, i32* %2, align 4
  %61 = sext i32 %60 to i64
  %62 = getelementptr inbounds [30 x i32], [30 x i32]* @h, i64 0, i64 %61
  %63 = load i32, i32* %62, align 4
  %64 = load i32, i32* %3, align 4
  %65 = sext i32 %64 to i64
  %66 = getelementptr inbounds [30 x i32], [30 x i32]* @f, i64 0, i64 %65
  %67 = load i32, i32* %66, align 4
  %68 = icmp sge i32 %63, %67
  br i1 %68, label %69, label %72

69:                                               ; preds = %55
  %70 = load i32, i32* %3, align 4
  %71 = add nsw i32 %70, 1
  store i32 %71, i32* %4, align 4
  br label %86

72:                                               ; preds = %55
  %73 = load i32, i32* %2, align 4
  %74 = sext i32 %73 to i64
  %75 = getelementptr inbounds [30 x i32], [30 x i32]* @h, i64 0, i64 %74
  %76 = load i32, i32* %75, align 4
  %77 = load i32, i32* %3, align 4
  %78 = sext i32 %77 to i64
  %79 = getelementptr inbounds [30 x i32], [30 x i32]* @f, i64 0, i64 %78
  %80 = load i32, i32* %79, align 4
  %81 = icmp slt i32 %76, %80
  br i1 %81, label %82, label %85

82:                                               ; preds = %72
  %83 = load i32, i32* %3, align 4
  %84 = sub nsw i32 %83, 1
  store i32 %84, i32* %5, align 4
  br label %85

85:                                               ; preds = %82, %72
  br label %86

86:                                               ; preds = %85, %69
  br label %51

87:                                               ; preds = %51
  %88 = load i32, i32* %4, align 4
  %89 = sext i32 %88 to i64
  %90 = getelementptr inbounds [30 x i32], [30 x i32]* @f, i64 0, i64 %89
  %91 = load i32, i32* %90, align 4
  %92 = load i32, i32* %2, align 4
  %93 = sext i32 %92 to i64
  %94 = getelementptr inbounds [30 x i32], [30 x i32]* @h, i64 0, i64 %93
  %95 = load i32, i32* %94, align 4
  %96 = icmp sgt i32 %91, %95
  br i1 %96, label %97, label %105

97:                                               ; preds = %87
  %98 = load i32, i32* %2, align 4
  %99 = sext i32 %98 to i64
  %100 = getelementptr inbounds [30 x i32], [30 x i32]* @h, i64 0, i64 %99
  %101 = load i32, i32* %100, align 4
  %102 = load i32, i32* %4, align 4
  %103 = sext i32 %102 to i64
  %104 = getelementptr inbounds [30 x i32], [30 x i32]* @f, i64 0, i64 %103
  store i32 %101, i32* %104, align 4
  br label %114

105:                                              ; preds = %87
  %106 = load i32, i32* %2, align 4
  %107 = sext i32 %106 to i64
  %108 = getelementptr inbounds [30 x i32], [30 x i32]* @h, i64 0, i64 %107
  %109 = load i32, i32* %108, align 4
  %110 = load i32, i32* %4, align 4
  %111 = add nsw i32 %110, 1
  %112 = sext i32 %111 to i64
  %113 = getelementptr inbounds [30 x i32], [30 x i32]* @f, i64 0, i64 %112
  store i32 %109, i32* %113, align 4
  br label %114

114:                                              ; preds = %105, %97
  br label %115

115:                                              ; preds = %114, %39
  br label %116

116:                                              ; preds = %115
  %117 = load i32, i32* %2, align 4
  %118 = add nsw i32 %117, -1
  store i32 %118, i32* %2, align 4
  br label %22

119:                                              ; preds = %22
  %120 = load i32, i32* @l, align 4
  %121 = call i32 (i8*, ...) @printf(i8* getelementptr inbounds ([4 x i8], [4 x i8]* @.str.1, i64 0, i64 0), i32 %120)
  %122 = load i32, i32* %1, align 4
  ret i32 %122
}

declare dso_local i32 @__isoc99_scanf(i8*, ...) #1

declare dso_local i32 @printf(i8*, ...) #1


!llvm.module.flags = !{!0}
!llvm.ident = !{!1}

!0 = !{i32 1, !"wchar_size", i32 4}
!1 = !{!"clang version 10.0.0-4ubuntu1 "}
